target datalayout = "e-m:e-p270:32:32-p271:32:32-p272:64:64-i64:64-i128:128-f80:128-n8:16:32:64-S128"
target triple = "x86_64-pc-linux-gnu"

%struct.OpusPsyContext = type { ptr, ptr, ptr, ptr, [2 x [21 x %struct.OpusBandExcitation]], [2 x [21 x %struct.FFBesselFilter]], [2 x [21 x %struct.FFBesselFilter]], [146 x ptr], i32, [4 x ptr], [4 x ptr], [4 x ptr], i32, [12 x i8], [2048 x float], float, i64, i64, %struct.OpusPacketInfo, i32, i32, i32, float, ptr, i32, [12 x i8] }
%struct.OpusBandExcitation = type { float, float, float }
%struct.FFBesselFilter = type { [3 x float], [2 x float], [3 x float], [3 x float] }
%struct.OpusPacketInfo = type { i32, i32, i32, i32 }

@.str = private unnamed_addr constant [38 x i8] c"Average Intensity Stereo band: %0.1f\0A\00", align 1
@.str.1 = private unnamed_addr constant [27 x i8] c"Dual Stereo used: %0.2f%%\0A\00", align 1

; Function Attrs: cold nounwind optsize uwtable
define i32 @ff_opus_psy_end(ptr noundef %0) #3 {
  %2 = alloca ptr, align 8
  %3 = alloca i32, align 4
  store ptr %0, ptr %2, align 8, !tbaa !4
  call void @llvm.lifetime.start.p0(i64 4, ptr %3) #11
  %4 = load ptr, ptr %2, align 8, !tbaa !4
  %5 = getelementptr inbounds nuw %struct.OpusPsyContext, ptr %4, i32 0, i32 23
  call void @av_freep(ptr noundef %5)
  %6 = load ptr, ptr %2, align 8, !tbaa !4
  %7 = getelementptr inbounds nuw %struct.OpusPsyContext, ptr %6, i32 0, i32 1
  call void @av_freep(ptr noundef %7)
  store i32 0, ptr %3, align 4, !tbaa !26
  br label %8

8:                                                ; preds = %22, %1
  %9 = load i32, ptr %3, align 4, !tbaa !26
  %10 = icmp slt i32 %9, 4
  br i1 %10, label %11, label %25

11:                                               ; preds = %8
  %12 = load ptr, ptr %2, align 8, !tbaa !4
  %13 = getelementptr inbounds nuw %struct.OpusPsyContext, ptr %12, i32 0, i32 10
  %14 = load i32, ptr %3, align 4, !tbaa !26
  %15 = sext i32 %14 to i64
  %16 = getelementptr inbounds [4 x ptr], ptr %13, i64 0, i64 %15
  call void @av_tx_uninit(ptr noundef %16)
  %17 = load ptr, ptr %2, align 8, !tbaa !4
  %18 = getelementptr inbounds nuw %struct.OpusPsyContext, ptr %17, i32 0, i32 9
  %19 = load i32, ptr %3, align 4, !tbaa !26
  %20 = sext i32 %19 to i64
  %21 = getelementptr inbounds [4 x ptr], ptr %18, i64 0, i64 %20
  call void @av_freep(ptr noundef %21)
  br label %22

22:                                               ; preds = %11
  %23 = load i32, ptr %3, align 4, !tbaa !26
  %24 = add nsw i32 %23, 1
  store i32 %24, ptr %3, align 4, !tbaa !26
  br label %8, !llvm.loop !192

25:                                               ; preds = %8
  store i32 0, ptr %3, align 4, !tbaa !26
  br label %26

26:                                               ; preds = %38, %25
  %27 = load i32, ptr %3, align 4, !tbaa !26
  %28 = load ptr, ptr %2, align 8, !tbaa !4
  %29 = getelementptr inbounds nuw %struct.OpusPsyContext, ptr %28, i32 0, i32 8
  %30 = load i32, ptr %29, align 8, !tbaa !23
  %31 = icmp slt i32 %27, %30
  br i1 %31, label %32, label %41

32:                                               ; preds = %26
  %33 = load ptr, ptr %2, align 8, !tbaa !4
  %34 = getelementptr inbounds nuw %struct.OpusPsyContext, ptr %33, i32 0, i32 7
  %35 = load i32, ptr %3, align 4, !tbaa !26
  %36 = sext i32 %35 to i64
  %37 = getelementptr inbounds [146 x ptr], ptr %34, i64 0, i64 %36
  call void @av_freep(ptr noundef %37)
  br label %38

38:                                               ; preds = %32
  %39 = load i32, ptr %3, align 4, !tbaa !26
  %40 = add nsw i32 %39, 1
  store i32 %40, ptr %3, align 4, !tbaa !26
  br label %26, !llvm.loop !193

41:                                               ; preds = %26
  %42 = load ptr, ptr %2, align 8, !tbaa !4
  %43 = getelementptr inbounds nuw %struct.OpusPsyContext, ptr %42, i32 0, i32 0
  %44 = load ptr, ptr %43, align 16, !tbaa !43
  %45 = load ptr, ptr %2, align 8, !tbaa !4
  %46 = getelementptr inbounds nuw %struct.OpusPsyContext, ptr %45, i32 0, i32 15
  %47 = load float, ptr %46, align 16, !tbaa !143
  %48 = fpext nsz float %47 to double
  call void (ptr, i32, ptr, ...) @av_log(ptr noundef %44, i32 noundef 32, ptr noundef @.str, double noundef %48)
  %49 = load ptr, ptr %2, align 8, !tbaa !4
  %50 = getelementptr inbounds nuw %struct.OpusPsyContext, ptr %49, i32 0, i32 0
  %51 = load ptr, ptr %50, align 16, !tbaa !43
  %52 = load ptr, ptr %2, align 8, !tbaa !4
  %53 = getelementptr inbounds nuw %struct.OpusPsyContext, ptr %52, i32 0, i32 16
  %54 = load i64, ptr %53, align 8, !tbaa !144
  %55 = sitofp i64 %54 to float
  %56 = load ptr, ptr %2, align 8, !tbaa !4
  %57 = getelementptr inbounds nuw %struct.OpusPsyContext, ptr %56, i32 0, i32 17
  %58 = load i64, ptr %57, align 16, !tbaa !155
  %59 = sitofp i64 %58 to float
  %60 = fdiv nsz float %55, %59
  %61 = fmul nsz float %60, 1.000000e+02
  %62 = fpext nsz float %61 to double
  call void (ptr, i32, ptr, ...) @av_log(ptr noundef %51, i32 noundef 32, ptr noundef @.str.1, double noundef %62)
  call void @llvm.lifetime.end.p0(i64 4, ptr %3) #11
  ret i32 0
}