; Function Attrs: cold nounwind optsize uwtable
define noundef i32 @ff_opus_psy_end(ptr noundef %0) local_unnamed_addr #6 {
  %2 = getelementptr inbounds nuw i8, ptr %0, i64 13768
  tail call void @av_freep(ptr noundef nonnull %2) #13
  %3 = getelementptr inbounds nuw i8, ptr %0, i64 8
  tail call void @av_freep(ptr noundef nonnull %3) #13
  %4 = getelementptr inbounds nuw i8, ptr %0, i64 5440
  %5 = getelementptr inbounds nuw i8, ptr %0, i64 5408
  br label %10

.preheader:                                       ; preds = %10
  %6 = getelementptr inbounds nuw i8, ptr %0, i64 5400
  %7 = load i32, ptr %6, align 8, !tbaa !18
  %8 = icmp sgt i32 %7, 0
  br i1 %8, label %.lr.ph, label %._crit_edge

.lr.ph:                                           ; preds = %.preheader
  %9 = getelementptr inbounds nuw i8, ptr %0, i64 4232
  br label %13

10:                                               ; preds = %1, %10
  %indvars.iv = phi i64 [ 0, %1 ], [ %indvars.iv.next, %10 ]
  %11 = getelementptr inbounds nuw [4 x ptr], ptr %4, i64 0, i64 %indvars.iv
  tail call void @av_tx_uninit(ptr noundef nonnull %11) #13
  %12 = getelementptr inbounds nuw [4 x ptr], ptr %5, i64 0, i64 %indvars.iv
  tail call void @av_freep(ptr noundef nonnull %12) #13
  %indvars.iv.next = add nuw nsw i64 %indvars.iv, 1
  %exitcond.not = icmp eq i64 %indvars.iv.next, 4
  br i1 %exitcond.not, label %.preheader, label %10, !llvm.loop !158

13:                                               ; preds = %.lr.ph, %13
  %indvars.iv20 = phi i64 [ 0, %.lr.ph ], [ %indvars.iv.next21, %13 ]
  %14 = getelementptr inbounds nuw [146 x ptr], ptr %9, i64 0, i64 %indvars.iv20
  tail call void @av_freep(ptr noundef nonnull %14) #13
  %indvars.iv.next21 = add nuw nsw i64 %indvars.iv20, 1
  %15 = load i32, ptr %6, align 8, !tbaa !18
  %16 = sext i32 %15 to i64
  %17 = icmp slt i64 %indvars.iv.next21, %16
  br i1 %17, label %13, label %._crit_edge, !llvm.loop !159

._crit_edge:                                      ; preds = %13, %.preheader
  %18 = load ptr, ptr %0, align 16, !tbaa !26
  %19 = getelementptr inbounds nuw i8, ptr %0, i64 13712
  %20 = load float, ptr %19, align 16, !tbaa !139
  %21 = fpext nsz float %20 to double
  tail call void (ptr, i32, ptr, ...) @av_log(ptr noundef %18, i32 noundef 32, ptr noundef nonnull @.str, double noundef %21) #13
  %22 = load ptr, ptr %0, align 16, !tbaa !26
  %23 = getelementptr inbounds nuw i8, ptr %0, i64 13720
  %24 = load i64, ptr %23, align 8, !tbaa !140
  %25 = sitofp i64 %24 to float
  %26 = getelementptr inbounds nuw i8, ptr %0, i64 13728
  %27 = load i64, ptr %26, align 16, !tbaa !149
  %28 = sitofp i64 %27 to float
  %29 = fdiv nsz float %25, %28
  %30 = fmul nsz float %29, 1.000000e+02
  %31 = fpext nsz float %30 to double
  tail call void (ptr, i32, ptr, ...) @av_log(ptr noundef %22, i32 noundef 32, ptr noundef nonnull @.str.1, double noundef %31) #13
  ret i32 0
}